target datalayout = "e-m:e-p270:32:32-p271:32:32-p272:64:64-i64:64-i128:128-f80:128-n8:16:32:64-S128"
target triple = "x86_64-pc-linux-gnu"

%struct.AVFormatContext = type { ptr, ptr, ptr, ptr, ptr, i32, i32, ptr, i32, ptr, i32, ptr, ptr, i64, i64, i64, i32, i32, i32, i64, i64, ptr, i32, i32, ptr, i32, i32, i32, i32, ptr, i64, i32, i32, %struct.AVIOInterruptCB, i32, i32, i32, i32, i64, i32, i32, i32, i32, i32, i32, i32, i32, i32, i32, i32, i32, i64, i32, i32, i32, i32, i32, ptr, ptr, ptr, ptr, i32, ptr, ptr, ptr, ptr, i32, ptr, ptr, i64, ptr, ptr, ptr, i64 }
%struct.AVIOInterruptCB = type { ptr, ptr }
%struct.AIFFOutputContext = type { ptr, i64, i64, i64, i32, %struct.PacketList, i32, i32 }
%struct.PacketList = type { ptr, ptr }
%struct.AVStream = type { ptr, i32, i32, ptr, ptr, %struct.AVRational, i64, i64, i64, i32, i32, %struct.AVRational, ptr, %struct.AVRational, %struct.AVPacket, i32, %struct.AVRational, i32 }
%struct.AVPacket = type { ptr, i64, i64, ptr, i32, i32, i32, ptr, i32, i64, i64, ptr, ptr, %struct.AVRational }
%struct.AVRational = type { i32, i32 }
%struct.AVCodecParameters = type { i32, i32, i32, ptr, i32, ptr, i32, i32, i64, i32, i32, i32, i32, i32, i32, %struct.AVRational, %struct.AVRational, i32, i32, i32, i32, i32, i32, i32, %struct.AVChannelLayout, i32, i32, i32, i32, i32, i32 }
%struct.AVChannelLayout = type { i32, i32, %union.anon.0, ptr }
%union.anon.0 = type { i64 }
%struct.AVIOContext = type { ptr, ptr, i32, ptr, ptr, ptr, ptr, ptr, ptr, i64, i32, i32, i32, i32, i32, i64, ptr, ptr, ptr, ptr, i32, i32, ptr, ptr, ptr, i32, ptr, i64, i64 }
%struct.ID3v2EncContext = type { i32, i64, i32 }
%struct.PacketListEntry = type { ptr, %struct.AVPacket }

@.str.28 = private unnamed_addr constant [4 x i8] c"ID3\00", align 1

; Function Attrs: nounwind uwtable
define internal i32 @put_id3v2_tags(ptr noundef %0, ptr noundef %1) #0 {
  %3 = alloca i32, align 4
  %4 = alloca ptr, align 8
  %5 = alloca ptr, align 8
  %6 = alloca i32, align 4
  %7 = alloca i64, align 8
  %8 = alloca i64, align 8
  %9 = alloca i64, align 8
  %10 = alloca %struct.ID3v2EncContext, align 8
  %11 = alloca ptr, align 8
  %12 = alloca ptr, align 8
  %13 = alloca i32, align 4
  store ptr %0, ptr %4, align 8, !tbaa !4
  store ptr %1, ptr %5, align 8, !tbaa !26
  call void @llvm.lifetime.start.p0(i64 4, ptr %6) #6
  call void @llvm.lifetime.start.p0(i64 8, ptr %7) #6
  call void @llvm.lifetime.start.p0(i64 8, ptr %8) #6
  call void @llvm.lifetime.start.p0(i64 8, ptr %9) #6
  call void @llvm.lifetime.start.p0(i64 24, ptr %10) #6
  call void @llvm.memset.p0.i64(ptr align 8 %10, i8 0, i64 24, i1 false)
  call void @llvm.lifetime.start.p0(i64 8, ptr %11) #6
  %14 = load ptr, ptr %4, align 8, !tbaa !4
  %15 = getelementptr inbounds nuw %struct.AVFormatContext, ptr %14, i32 0, i32 4
  %16 = load ptr, ptr %15, align 8, !tbaa !28
  store ptr %16, ptr %11, align 8, !tbaa !29
  call void @llvm.lifetime.start.p0(i64 8, ptr %12) #6
  %17 = load ptr, ptr %5, align 8, !tbaa !26
  %18 = getelementptr inbounds nuw %struct.AIFFOutputContext, ptr %17, i32 0, i32 5
  %19 = getelementptr inbounds nuw %struct.PacketList, ptr %18, i32 0, i32 0
  %20 = load ptr, ptr %19, align 8, !tbaa !83
  store ptr %20, ptr %12, align 8, !tbaa !84
  %21 = load ptr, ptr %4, align 8, !tbaa !4
  %22 = getelementptr inbounds nuw %struct.AVFormatContext, ptr %21, i32 0, i32 29
  %23 = load ptr, ptr %22, align 8, !tbaa !76
  %24 = icmp ne ptr %23, null
  br i1 %24, label %34, label %25

25:                                               ; preds = %2
  %26 = load ptr, ptr %4, align 8, !tbaa !4
  %27 = getelementptr inbounds nuw %struct.AVFormatContext, ptr %26, i32 0, i32 10
  %28 = load i32, ptr %27, align 8, !tbaa !85
  %29 = icmp ne i32 %28, 0
  br i1 %29, label %34, label %30

30:                                               ; preds = %25
  %31 = load ptr, ptr %12, align 8, !tbaa !84
  %32 = icmp ne ptr %31, null
  br i1 %32, label %34, label %33

33:                                               ; preds = %30
  store i32 0, ptr %3, align 4
  store i32 1, ptr %13, align 4
  br label %86

34:                                               ; preds = %30, %25, %2
  %35 = load ptr, ptr %11, align 8, !tbaa !29
  call void @avio_wb32(ptr noundef %35, i32 noundef 1229206304)
  %36 = load ptr, ptr %11, align 8, !tbaa !29
  call void @avio_wb32(ptr noundef %36, i32 noundef 0)
  %37 = load ptr, ptr %11, align 8, !tbaa !29
  %38 = call i64 @avio_tell(ptr noundef %37)
  store i64 %38, ptr %7, align 8, !tbaa !62
  %39 = load ptr, ptr %11, align 8, !tbaa !29
  %40 = load ptr, ptr %5, align 8, !tbaa !26
  %41 = getelementptr inbounds nuw %struct.AIFFOutputContext, ptr %40, i32 0, i32 7
  %42 = load i32, ptr %41, align 4, !tbaa !86
  call void @ff_id3v2_start(ptr noundef %10, ptr noundef %39, i32 noundef %42, ptr noundef @.str.28)
  %43 = load ptr, ptr %4, align 8, !tbaa !4
  %44 = call i32 @ff_id3v2_write_metadata(ptr noundef %43, ptr noundef %10)
  br label %45

45:                                               ; preds = %56, %34
  %46 = load ptr, ptr %12, align 8, !tbaa !84
  %47 = icmp ne ptr %46, null
  br i1 %47, label %48, label %60

48:                                               ; preds = %45
  %49 = load ptr, ptr %4, align 8, !tbaa !4
  %50 = load ptr, ptr %12, align 8, !tbaa !84
  %51 = getelementptr inbounds nuw %struct.PacketListEntry, ptr %50, i32 0, i32 1
  %52 = call i32 @ff_id3v2_write_apic(ptr noundef %49, ptr noundef %10, ptr noundef %51)
  store i32 %52, ptr %6, align 4, !tbaa !30
  %53 = icmp slt i32 %52, 0
  br i1 %53, label %54, label %56

54:                                               ; preds = %48
  %55 = load i32, ptr %6, align 4, !tbaa !30
  store i32 %55, ptr %3, align 4
  store i32 1, ptr %13, align 4
  br label %86

56:                                               ; preds = %48
  %57 = load ptr, ptr %12, align 8, !tbaa !84
  %58 = getelementptr inbounds nuw %struct.PacketListEntry, ptr %57, i32 0, i32 0
  %59 = load ptr, ptr %58, align 8, !tbaa !87
  store ptr %59, ptr %12, align 8, !tbaa !84
  br label %45, !llvm.loop !89

60:                                               ; preds = %45
  %61 = load ptr, ptr %11, align 8, !tbaa !29
  %62 = load ptr, ptr %4, align 8, !tbaa !4
  %63 = getelementptr inbounds nuw %struct.AVFormatContext, ptr %62, i32 0, i32 66
  %64 = load i32, ptr %63, align 8, !tbaa !90
  call void @ff_id3v2_finish(ptr noundef %10, ptr noundef %61, i32 noundef %64)
  %65 = load ptr, ptr %11, align 8, !tbaa !29
  %66 = call i64 @avio_tell(ptr noundef %65)
  store i64 %66, ptr %8, align 8, !tbaa !62
  %67 = load i64, ptr %8, align 8, !tbaa !62
  %68 = load i64, ptr %7, align 8, !tbaa !62
  %69 = sub i64 %67, %68
  store i64 %69, ptr %9, align 8, !tbaa !62
  %70 = load ptr, ptr %11, align 8, !tbaa !29
  %71 = load i64, ptr %7, align 8, !tbaa !62
  %72 = sub i64 %71, 4
  %73 = call i64 @avio_seek(ptr noundef %70, i64 noundef %72, i32 noundef 0)
  %74 = load ptr, ptr %11, align 8, !tbaa !29
  %75 = load i64, ptr %9, align 8, !tbaa !62
  %76 = trunc i64 %75 to i32
  call void @avio_wb32(ptr noundef %74, i32 noundef %76)
  %77 = load ptr, ptr %11, align 8, !tbaa !29
  %78 = load i64, ptr %8, align 8, !tbaa !62
  %79 = call i64 @avio_seek(ptr noundef %77, i64 noundef %78, i32 noundef 0)
  %80 = load i64, ptr %9, align 8, !tbaa !62
  %81 = and i64 %80, 1
  %82 = icmp ne i64 %81, 0
  br i1 %82, label %83, label %85

83:                                               ; preds = %60
  %84 = load ptr, ptr %11, align 8, !tbaa !29
  call void @avio_w8(ptr noundef %84, i32 noundef 0)
  br label %85

85:                                               ; preds = %83, %60
  store i32 0, ptr %3, align 4
  store i32 1, ptr %13, align 4
  br label %86

86:                                               ; preds = %85, %54, %33
  call void @llvm.lifetime.end.p0(i64 8, ptr %12) #6
  call void @llvm.lifetime.end.p0(i64 8, ptr %11) #6
  call void @llvm.lifetime.end.p0(i64 24, ptr %10) #6
  call void @llvm.lifetime.end.p0(i64 8, ptr %9) #6
  call void @llvm.lifetime.end.p0(i64 8, ptr %8) #6
  call void @llvm.lifetime.end.p0(i64 8, ptr %7) #6
  call void @llvm.lifetime.end.p0(i64 4, ptr %6) #6
  %87 = load i32, ptr %3, align 4
  ret i32 %87
}

; Function Attrs: alwaysinline nounwind uwtable
define internal i64 @avio_tell(ptr noundef %0) #3 {
  %2 = alloca ptr, align 8
  store ptr %0, ptr %2, align 8, !tbaa !29
  %3 = load ptr, ptr %2, align 8, !tbaa !29
  %4 = call i64 @avio_seek(ptr noundef %3, i64 noundef 0, i32 noundef 1)
  ret i64 %4
}

; Function Attrs: nounwind uwtable
define internal i32 @aiff_write_trailer(ptr noundef %0) #0 {
  %2 = alloca i32, align 4
  %3 = alloca ptr, align 8
  %4 = alloca i32, align 4
  %5 = alloca ptr, align 8
  %6 = alloca ptr, align 8
  %7 = alloca ptr, align 8
  %8 = alloca i64, align 8
  %9 = alloca i64, align 8
  %10 = alloca i32, align 4
  store ptr %0, ptr %3, align 8, !tbaa !4
  call void @llvm.lifetime.start.p0(i64 4, ptr %4) #6
  store i32 0, ptr %4, align 4, !tbaa !30
  call void @llvm.lifetime.start.p0(i64 8, ptr %5) #6
  %11 = load ptr, ptr %3, align 8, !tbaa !4
  %12 = getelementptr inbounds nuw %struct.AVFormatContext, ptr %11, i32 0, i32 4
  %13 = load ptr, ptr %12, align 8, !tbaa !28
  store ptr %13, ptr %5, align 8, !tbaa !29
  call void @llvm.lifetime.start.p0(i64 8, ptr %6) #6
  %14 = load ptr, ptr %3, align 8, !tbaa !4
  %15 = getelementptr inbounds nuw %struct.AVFormatContext, ptr %14, i32 0, i32 3
  %16 = load ptr, ptr %15, align 8, !tbaa !9
  store ptr %16, ptr %6, align 8, !tbaa !26
  call void @llvm.lifetime.start.p0(i64 8, ptr %7) #6
  %17 = load ptr, ptr %3, align 8, !tbaa !4
  %18 = getelementptr inbounds nuw %struct.AVFormatContext, ptr %17, i32 0, i32 7
  %19 = load ptr, ptr %18, align 8, !tbaa !36
  %20 = load ptr, ptr %6, align 8, !tbaa !26
  %21 = getelementptr inbounds nuw %struct.AIFFOutputContext, ptr %20, i32 0, i32 4
  %22 = load i32, ptr %21, align 8, !tbaa !31
  %23 = sext i32 %22 to i64
  %24 = getelementptr inbounds ptr, ptr %19, i64 %23
  %25 = load ptr, ptr %24, align 8, !tbaa !37
  %26 = getelementptr inbounds nuw %struct.AVStream, ptr %25, i32 0, i32 3
  %27 = load ptr, ptr %26, align 8, !tbaa !39
  store ptr %27, ptr %7, align 8, !tbaa !51
  call void @llvm.lifetime.start.p0(i64 8, ptr %8) #6
  call void @llvm.lifetime.start.p0(i64 8, ptr %9) #6
  %28 = load ptr, ptr %5, align 8, !tbaa !29
  %29 = call i64 @avio_tell(ptr noundef %28)
  store i64 %29, ptr %9, align 8, !tbaa !62
  %30 = load i64, ptr %9, align 8, !tbaa !62
  %31 = and i64 %30, 1
  %32 = icmp ne i64 %31, 0
  br i1 %32, label %33, label %35

33:                                               ; preds = %1
  %34 = load ptr, ptr %5, align 8, !tbaa !29
  call void @avio_w8(ptr noundef %34, i32 noundef 0)
  br label %35

35:                                               ; preds = %33, %1
  %36 = load ptr, ptr %3, align 8, !tbaa !4
  %37 = getelementptr inbounds nuw %struct.AVFormatContext, ptr %36, i32 0, i32 4
  %38 = load ptr, ptr %37, align 8, !tbaa !28
  %39 = getelementptr inbounds nuw %struct.AVIOContext, ptr %38, i32 0, i32 20
  %40 = load i32, ptr %39, align 8, !tbaa !72
  %41 = and i32 %40, 1
  %42 = icmp ne i32 %41, 0
  br i1 %42, label %43, label %103

43:                                               ; preds = %35
  %44 = load ptr, ptr %6, align 8, !tbaa !26
  %45 = getelementptr inbounds nuw %struct.AIFFOutputContext, ptr %44, i32 0, i32 6
  %46 = load i32, ptr %45, align 8, !tbaa !74
  %47 = icmp ne i32 %46, 0
  br i1 %47, label %48, label %56

48:                                               ; preds = %43
  %49 = load ptr, ptr %3, align 8, !tbaa !4
  %50 = load ptr, ptr %6, align 8, !tbaa !26
  %51 = call i32 @put_id3v2_tags(ptr noundef %49, ptr noundef %50)
  store i32 %51, ptr %4, align 4, !tbaa !30
  %52 = icmp slt i32 %51, 0
  br i1 %52, label %53, label %55

53:                                               ; preds = %48
  %54 = load i32, ptr %4, align 4, !tbaa !30
  store i32 %54, ptr %2, align 4
  store i32 1, ptr %10, align 4
  br label %105

55:                                               ; preds = %48
  br label %56

56:                                               ; preds = %55, %43
  %57 = load ptr, ptr %5, align 8, !tbaa !29
  %58 = call i64 @avio_tell(ptr noundef %57)
  store i64 %58, ptr %8, align 8, !tbaa !62
  %59 = load ptr, ptr %5, align 8, !tbaa !29
  %60 = load ptr, ptr %6, align 8, !tbaa !26
  %61 = getelementptr inbounds nuw %struct.AIFFOutputContext, ptr %60, i32 0, i32 1
  %62 = load i64, ptr %61, align 8, !tbaa !53
  %63 = call i64 @avio_seek(ptr noundef %59, i64 noundef %62, i32 noundef 0)
  %64 = load ptr, ptr %5, align 8, !tbaa !29
  %65 = load i64, ptr %8, align 8, !tbaa !62
  %66 = load ptr, ptr %6, align 8, !tbaa !26
  %67 = getelementptr inbounds nuw %struct.AIFFOutputContext, ptr %66, i32 0, i32 1
  %68 = load i64, ptr %67, align 8, !tbaa !53
  %69 = sub nsw i64 %65, %68
  %70 = sub nsw i64 %69, 4
  %71 = trunc i64 %70 to i32
  call void @avio_wb32(ptr noundef %64, i32 noundef %71)
  %72 = load ptr, ptr %5, align 8, !tbaa !29
  %73 = load ptr, ptr %6, align 8, !tbaa !26
  %74 = getelementptr inbounds nuw %struct.AIFFOutputContext, ptr %73, i32 0, i32 2
  %75 = load i64, ptr %74, align 8, !tbaa !58
  %76 = call i64 @avio_seek(ptr noundef %72, i64 noundef %75, i32 noundef 0)
  %77 = load ptr, ptr %5, align 8, !tbaa !29
  %78 = load i64, ptr %9, align 8, !tbaa !62
  %79 = load ptr, ptr %6, align 8, !tbaa !26
  %80 = getelementptr inbounds nuw %struct.AIFFOutputContext, ptr %79, i32 0, i32 3
  %81 = load i64, ptr %80, align 8, !tbaa !65
  %82 = sub nsw i64 %78, %81
  %83 = sub nsw i64 %82, 12
  %84 = load ptr, ptr %7, align 8, !tbaa !51
  %85 = getelementptr inbounds nuw %struct.AVCodecParameters, ptr %84, i32 0, i32 26
  %86 = load i32, ptr %85, align 4, !tbaa !54
  %87 = sext i32 %86 to i64
  %88 = sdiv i64 %83, %87
  %89 = trunc i64 %88 to i32
  call void @avio_wb32(ptr noundef %77, i32 noundef %89)
  %90 = load ptr, ptr %5, align 8, !tbaa !29
  %91 = load ptr, ptr %6, align 8, !tbaa !26
  %92 = getelementptr inbounds nuw %struct.AIFFOutputContext, ptr %91, i32 0, i32 3
  %93 = load i64, ptr %92, align 8, !tbaa !65
  %94 = call i64 @avio_seek(ptr noundef %90, i64 noundef %93, i32 noundef 0)
  %95 = load ptr, ptr %5, align 8, !tbaa !29
  %96 = load i64, ptr %9, align 8, !tbaa !62
  %97 = load ptr, ptr %6, align 8, !tbaa !26
  %98 = getelementptr inbounds nuw %struct.AIFFOutputContext, ptr %97, i32 0, i32 3
  %99 = load i64, ptr %98, align 8, !tbaa !65
  %100 = sub nsw i64 %96, %99
  %101 = sub nsw i64 %100, 4
  %102 = trunc i64 %101 to i32
  call void @avio_wb32(ptr noundef %95, i32 noundef %102)
  br label %103

103:                                              ; preds = %56, %35
  %104 = load i32, ptr %4, align 4, !tbaa !30
  store i32 %104, ptr %2, align 4
  store i32 1, ptr %10, align 4
  br label %105

105:                                              ; preds = %103, %53
  call void @llvm.lifetime.end.p0(i64 8, ptr %9) #6
  call void @llvm.lifetime.end.p0(i64 8, ptr %8) #6
  call void @llvm.lifetime.end.p0(i64 8, ptr %7) #6
  call void @llvm.lifetime.end.p0(i64 8, ptr %6) #6
  call void @llvm.lifetime.end.p0(i64 8, ptr %5) #6
  call void @llvm.lifetime.end.p0(i64 4, ptr %4) #6
  %106 = load i32, ptr %2, align 4
  ret i32 %106
}