; Function Attrs: nounwind uwtable
define internal range(i32 -2147483648, 1) i32 @aiff_write_trailer(ptr noundef %0) #0 {
  %2 = alloca %struct.ID3v2EncContext, align 8
  %3 = getelementptr inbounds nuw i8, ptr %0, i64 32
  %4 = load ptr, ptr %3, align 8, !tbaa !24
  %5 = getelementptr inbounds nuw i8, ptr %0, i64 24
  %6 = load ptr, ptr %5, align 8, !tbaa !4
  %7 = getelementptr inbounds nuw i8, ptr %0, i64 48
  %8 = load ptr, ptr %7, align 8, !tbaa !30
  %9 = getelementptr inbounds nuw i8, ptr %6, i64 32
  %10 = load i32, ptr %9, align 8, !tbaa !25
  %11 = sext i32 %10 to i64
  %12 = getelementptr inbounds ptr, ptr %8, i64 %11
  %13 = load ptr, ptr %12, align 8, !tbaa !31
  %14 = getelementptr inbounds nuw i8, ptr %13, i64 16
  %15 = load ptr, ptr %14, align 8, !tbaa !33
  %16 = tail call i64 @avio_seek(ptr noundef %4, i64 noundef 0, i32 noundef 1) #5
  %17 = and i64 %16, 1
  %.not = icmp eq i64 %17, 0
  br i1 %.not, label %19, label %18

18:                                               ; preds = %1
  tail call void @avio_w8(ptr noundef %4, i32 noundef 0) #5
  br label %19

19:                                               ; preds = %18, %1
  %20 = load ptr, ptr %3, align 8, !tbaa !24
  %21 = getelementptr inbounds nuw i8, ptr %20, i64 144
  %22 = load i32, ptr %21, align 8, !tbaa !65
  %23 = and i32 %22, 1
  %.not33 = icmp eq i32 %23, 0
  br i1 %.not33, label %84, label %24

24:                                               ; preds = %19
  %25 = getelementptr inbounds nuw i8, ptr %6, i64 56
  %26 = load i32, ptr %25, align 8, !tbaa !67
  %.not34 = icmp eq i32 %26, 0
  br i1 %.not34, label %57, label %27

27:                                               ; preds = %24
  call void @llvm.lifetime.start.p0(i64 24, ptr nonnull %2) #5
  call void @llvm.memset.p0.i64(ptr noundef nonnull align 8 dereferenceable(24) %2, i8 0, i64 24, i1 false)
  %28 = getelementptr inbounds nuw i8, ptr %6, i64 40
  %29 = load ptr, ptr %28, align 8, !tbaa !68
  %30 = getelementptr inbounds nuw i8, ptr %0, i64 192
  %31 = load ptr, ptr %30, align 8, !tbaa !51
  %.not.i = icmp eq ptr %31, null
  br i1 %.not.i, label %32, label %37

32:                                               ; preds = %27
  %33 = getelementptr inbounds nuw i8, ptr %0, i64 72
  %34 = load i32, ptr %33, align 8, !tbaa !69
  %35 = icmp ne i32 %34, 0
  %36 = icmp ne ptr %29, null
  %or.cond.i = select i1 %35, i1 true, i1 %36
  br i1 %or.cond.i, label %37, label %put_id3v2_tags.exit.thread

37:                                               ; preds = %32, %27
  tail call void @avio_wb32(ptr noundef nonnull %20, i32 noundef 1229206304) #5
  tail call void @avio_wb32(ptr noundef nonnull %20, i32 noundef 0) #5
  %38 = tail call i64 @avio_seek(ptr noundef nonnull %20, i64 noundef 0, i32 noundef 1) #5
  %39 = getelementptr inbounds nuw i8, ptr %6, i64 60
  %40 = load i32, ptr %39, align 4, !tbaa !70
  call void @ff_id3v2_start(ptr noundef nonnull %2, ptr noundef nonnull %20, i32 noundef %40, ptr noundef nonnull @.str.28) #5
  %41 = call i32 @ff_id3v2_write_metadata(ptr noundef nonnull %0, ptr noundef nonnull %2) #5
  %.not3234.i = icmp eq ptr %29, null
  br i1 %.not3234.i, label %._crit_edge.i, label %.lr.ph.i

.lr.ph.i:                                         ; preds = %37, %45
  %.035.i = phi ptr [ %46, %45 ], [ %29, %37 ]
  %42 = getelementptr inbounds nuw i8, ptr %.035.i, i64 8
  %43 = call i32 @ff_id3v2_write_apic(ptr noundef nonnull %0, ptr noundef nonnull %2, ptr noundef nonnull %42) #5
  %44 = icmp slt i32 %43, 0
  br i1 %44, label %put_id3v2_tags.exit, label %45

45:                                               ; preds = %.lr.ph.i
  %46 = load ptr, ptr %.035.i, align 8, !tbaa !71
  %.not32.i = icmp eq ptr %46, null
  br i1 %.not32.i, label %._crit_edge.i, label %.lr.ph.i, !llvm.loop !73

._crit_edge.i:                                    ; preds = %45, %37
  %47 = getelementptr inbounds nuw i8, ptr %0, i64 408
  %48 = load i32, ptr %47, align 8, !tbaa !74
  call void @ff_id3v2_finish(ptr noundef nonnull %2, ptr noundef nonnull %20, i32 noundef %48) #5
  %49 = call i64 @avio_seek(ptr noundef nonnull %20, i64 noundef 0, i32 noundef 1) #5
  %50 = sub i64 %49, %38
  %51 = add i64 %38, -4
  %52 = call i64 @avio_seek(ptr noundef nonnull %20, i64 noundef %51, i32 noundef 0) #5
  %53 = trunc i64 %50 to i32
  call void @avio_wb32(ptr noundef nonnull %20, i32 noundef %53) #5
  %54 = call i64 @avio_seek(ptr noundef nonnull %20, i64 noundef %49, i32 noundef 0) #5
  %55 = and i64 %50, 1
  %.not33.i = icmp eq i64 %55, 0
  br i1 %.not33.i, label %put_id3v2_tags.exit.thread, label %56

56:                                               ; preds = %._crit_edge.i
  call void @avio_w8(ptr noundef nonnull %20, i32 noundef 0) #5
  br label %put_id3v2_tags.exit.thread

put_id3v2_tags.exit.thread:                       ; preds = %32, %56, %._crit_edge.i
  call void @llvm.lifetime.end.p0(i64 24, ptr nonnull %2) #5
  br label %57

put_id3v2_tags.exit:                              ; preds = %.lr.ph.i
  call void @llvm.lifetime.end.p0(i64 24, ptr nonnull %2) #5
  br label %84

57:                                               ; preds = %put_id3v2_tags.exit.thread, %24
  %58 = call i64 @avio_seek(ptr noundef %4, i64 noundef 0, i32 noundef 1) #5
  %59 = getelementptr inbounds nuw i8, ptr %6, i64 8
  %60 = load i64, ptr %59, align 8, !tbaa !46
  %61 = call i64 @avio_seek(ptr noundef %4, i64 noundef %60, i32 noundef 0) #5
  %62 = load i64, ptr %59, align 8, !tbaa !46
  %63 = sub nsw i64 %58, %62
  %64 = trunc i64 %63 to i32
  %65 = add i32 %64, -4
  call void @avio_wb32(ptr noundef %4, i32 noundef %65) #5
  %66 = getelementptr inbounds nuw i8, ptr %6, i64 16
  %67 = load i64, ptr %66, align 8, !tbaa !54
  %68 = call i64 @avio_seek(ptr noundef %4, i64 noundef %67, i32 noundef 0) #5
  %69 = getelementptr inbounds nuw i8, ptr %6, i64 24
  %70 = load i64, ptr %69, align 8, !tbaa !60
  %71 = add i64 %16, -12
  %72 = sub i64 %71, %70
  %73 = getelementptr inbounds nuw i8, ptr %15, i64 156
  %74 = load i32, ptr %73, align 4, !tbaa !47
  %75 = sext i32 %74 to i64
  %76 = sdiv i64 %72, %75
  %77 = trunc i64 %76 to i32
  call void @avio_wb32(ptr noundef %4, i32 noundef %77) #5
  %78 = load i64, ptr %69, align 8, !tbaa !60
  %79 = call i64 @avio_seek(ptr noundef %4, i64 noundef %78, i32 noundef 0) #5
  %80 = load i64, ptr %69, align 8, !tbaa !60
  %81 = sub nsw i64 %16, %80
  %82 = trunc i64 %81 to i32
  %83 = add i32 %82, -4
  call void @avio_wb32(ptr noundef %4, i32 noundef %83) #5
  br label %84

84:                                               ; preds = %put_id3v2_tags.exit, %19, %57
  %.0 = phi i32 [ %43, %put_id3v2_tags.exit ], [ 0, %57 ], [ 0, %19 ]
  ret i32 %.0
}